target datalayout = "e-m:e-p270:32:32-p271:32:32-p272:64:64-i64:64-i128:128-f80:128-n8:16:32:64-S128"
target triple = "x86_64-unknown-linux-gnu"

; Function Attrs: mustprogress uwtable
define hidden void @_ZN19OpenColorIO_v2_4dev19CreateScaleOffsetOpERNS_10OpRcPtrVecEPKdS3_NS_18TransformDirectionE(ptr noundef nonnull align 8 dereferenceable(144) %ops, ptr noundef %scale4, ptr noundef %offset4, i32 noundef %direction) #4 {
entry:
  %ops.addr = alloca ptr, align 8
  %scale4.addr = alloca ptr, align 8
  %offset4.addr = alloca ptr, align 8
  %direction.addr = alloca i32, align 4
  %m44 = alloca [16 x double], align 16
  store ptr %ops, ptr %ops.addr, align 8
  store ptr %scale4, ptr %scale4.addr, align 8
  store ptr %offset4, ptr %offset4.addr, align 8
  store i32 %direction, ptr %direction.addr, align 4
  call void @llvm.memset.p0.i64(ptr align 16 %m44, i8 0, i64 128, i1 false)
  %0 = load ptr, ptr %scale4.addr, align 8
  %arrayidx = getelementptr inbounds double, ptr %0, i64 0
  %1 = load double, ptr %arrayidx, align 8
  %arrayidx1 = getelementptr inbounds [16 x double], ptr %m44, i64 0, i64 0
  store double %1, ptr %arrayidx1, align 16
  %2 = load ptr, ptr %scale4.addr, align 8
  %arrayidx2 = getelementptr inbounds double, ptr %2, i64 1
  %3 = load double, ptr %arrayidx2, align 8
  %arrayidx3 = getelementptr inbounds [16 x double], ptr %m44, i64 0, i64 5
  store double %3, ptr %arrayidx3, align 8
  %4 = load ptr, ptr %scale4.addr, align 8
  %arrayidx4 = getelementptr inbounds double, ptr %4, i64 2
  %5 = load double, ptr %arrayidx4, align 8
  %arrayidx5 = getelementptr inbounds [16 x double], ptr %m44, i64 0, i64 10
  store double %5, ptr %arrayidx5, align 16
  %6 = load ptr, ptr %scale4.addr, align 8
  %arrayidx6 = getelementptr inbounds double, ptr %6, i64 3
  %7 = load double, ptr %arrayidx6, align 8
  %arrayidx7 = getelementptr inbounds [16 x double], ptr %m44, i64 0, i64 15
  store double %7, ptr %arrayidx7, align 8
  %8 = load ptr, ptr %ops.addr, align 8
  %arraydecay = getelementptr inbounds [16 x double], ptr %m44, i64 0, i64 0
  %9 = load ptr, ptr %offset4.addr, align 8
  %10 = load i32, ptr %direction.addr, align 4
  call void @_ZN19OpenColorIO_v2_4dev20CreateMatrixOffsetOpERNS_10OpRcPtrVecEPKdS3_NS_18TransformDirectionE(ptr noundef nonnull align 8 dereferenceable(144) %8, ptr noundef %arraydecay, ptr noundef %9, i32 noundef %10)
  ret void
}